Certificate:
    Data:
        Version: 3 (0x2)
        Serial Number:
            1e:f8:2c:1a:c8:5f:02:1d:d2:e4:1c:92:71:d1:c3:24
        Signature Algorithm: sha256WithRSAEncryption
        Issuer: CN=Easy-RSA CA
        Validity
            Not Before: Jan 25 17:26:39 2025 GMT
            Not After : Apr 30 17:26:39 2027 GMT
        Subject: CN=client
        Subject Public Key Info:
            Public Key Algorithm: rsaEncryption
                Public-Key: (2048 bit)
                Modulus:
                    00:a5:63:7b:ed:6e:38:34:bd:d6:d8:63:96:52:f5:
                    49:0e:ed:bc:a3:a2:59:9c:fd:11:48:bc:b3:4f:0d:
                    8f:f3:3f:4b:ff:30:9e:db:63:e1:b8:ed:f1:a3:ea:
                    58:3d:f1:65:bc:e6:3e:db:d5:a1:6e:ce:84:4f:b8:
                    a6:fa:96:79:d3:f5:3d:3a:9c:35:1c:08:09:5d:cc:
                    d3:59:87:f0:b2:85:84:2f:d2:73:62:e8:17:29:aa:
                    41:19:36:1a:6d:c9:fe:99:c9:78:5b:98:ef:97:85:
                    6f:81:10:7b:e2:f3:23:ed:a0:33:50:ad:84:d4:b3:
                    60:e1:75:25:ea:97:3b:4d:07:b7:69:b4:26:99:cc:
                    d8:ba:98:e9:a2:a8:51:8b:81:d5:c7:4d:01:18:69:
                    84:ab:5d:11:60:04:04:29:18:d0:8b:d1:fa:00:57:
                    67:fd:77:bf:85:0a:06:c6:29:b0:50:75:33:e4:b0:
                    79:75:2e:23:94:76:2f:b9:7d:46:47:0d:b9:a7:be:
                    c2:e6:7f:6e:3b:94:71:fa:ac:27:ea:3b:39:9f:71:
                    f6:1b:c1:1b:31:8b:99:95:1e:4c:b3:45:11:a9:59:
                    1b:3d:45:0a:09:bd:38:4e:60:a6:bf:98:41:76:be:
                    20:3f:bf:54:8f:c0:1e:22:bc:13:5a:49:72:53:4f:
                    a3:cd
                Exponent: 65537 (0x10001)
        X509v3 extensions:
            X509v3 Basic Constraints: 
                CA:FALSE
            X509v3 Subject Key Identifier: 
                74:01:AA:17:74:9E:91:F1:DD:FE:C6:07:5F:D7:64:27:79:25:93:8D
            X509v3 Authority Key Identifier: 
                keyid:AF:32:7C:45:B9:29:85:CB:28:08:D0:61:1D:B2:3D:C2:62:33:1C:CF
                DirName:/CN=Easy-RSA CA
                serial:7C:3E:57:B3:D3:EF:9B:2C:20:E5:93:55:F7:2C:AA:A8:15:A3:B5
            X509v3 Extended Key Usage: 
                TLS Web Client Authentication
            X509v3 Key Usage: 
                Digital Signature
    Signature Algorithm: sha256WithRSAEncryption
    Signature Value:
        1f:13:dd:7e:85:18:7f:a1:ff:82:92:5f:a8:98:d1:9f:79:f9:
        d1:e4:9f:a5:13:f4:9e:b5:35:25:e6:6e:90:1f:23:38:b1:32:
        9a:11:fd:82:75:b1:48:f2:4d:2e:8b:e3:84:89:b1:98:6e:4f:
        5c:72:2d:10:1d:9b:0f:6c:26:a9:65:0b:9f:af:0a:7f:35:7f:
        bc:52:88:21:4d:53:89:4e:cf:e7:ea:cd:63:35:87:0b:c6:fb:
        eb:3c:a4:d2:3c:ce:3b:9d:75:7a:c7:df:47:c2:1b:ed:69:b6:
        c9:b5:5c:13:8f:e4:74:5a:6a:38:5a:02:86:fd:2b:c3:fb:0b:
        5d:34:07:df:33:75:03:01:d5:c5:53:25:53:38:40:af:4a:2d:
        c3:47:b8:98:d2:a9:77:fe:06:06:77:d9:83:93:3a:73:a1:9f:
        4d:7e:1d:80:0c:39:f8:64:81:8d:ff:fd:eb:2a:18:16:69:ab:
        91:d0:ea:37:5e:9f:96:d8:df:9f:51:05:92:1d:ba:13:42:79:
        80:c6:0a:e4:c3:69:b3:f2:96:3e:f6:e3:46:96:dd:0b:0d:8e:
        6e:b4:a0:97:36:08:a5:ce:ce:b0:03:96:d4:f8:2d:3a:5b:4f:
        c3:8a:e3:9f:e8:ec:be:0c:e4:70:e6:9c:ea:c0:0e:ec:6e:9a:
        74:6d:ba:23
-----BEGIN CERTIFICATE-----
MIIDUzCCAjugAwIBAgIQHvgsGshfAh3S5ByScdHDJDANBgkqhkiG9w0BAQsFADAW
MRQwEgYDVQQDDAtFYXN5LVJTQSBDQTAeFw0yNTAxMjUxNzI2MzlaFw0yNzA0MzAx
NzI2MzlaMBExDzANBgNVBAMMBmNsaWVudDCCASIwDQYJKoZIhvcNAQEBBQADggEP
ADCCAQoCggEBAKVje+1uODS91thjllL1SQ7tvKOiWZz9EUi8s08Nj/M/S/8wnttj
4bjt8aPqWD3xZbzmPtvVoW7OhE+4pvqWedP1PTqcNRwICV3M01mH8LKFhC/Sc2Lo
FymqQRk2Gm3J/pnJeFuY75eFb4EQe+LzI+2gM1CthNSzYOF1JeqXO00Ht2m0JpnM
2LqY6aKoUYuB1cdNARhphKtdEWAEBCkY0IvR+gBXZ/13v4UKBsYpsFB1M+SweXUu
I5R2L7l9RkcNuae+wuZ/bjuUcfqsJ+o7OZ9x9hvBGzGLmZUeTLNFEalZGz1FCgm9
OE5gpr+YQXa+ID+/VI/AHiK8E1pJclNPo80CAwEAAaOBoTCBnjAJBgNVHRMEAjAA
MB0GA1UdDgQWBBR0AaoXdJ6R8d3+xgdf12QneSWTjTBQBgNVHSMESTBHgBSvMnxF
uSmFyygI0GEdsj3CYjMcz6EapBgwFjEUMBIGA1UEAwwLRWFzeS1SU0EgQ0GCE3w+
V7PT75ssIOWTVfcsqqgVo7UwEwYDVR0lBAwwCgYIKwYBBQUHAwIwCwYDVR0PBAQD
AgeAMA0GCSqGSIb3DQEBCwUAA4IBAQAfE91+hRh/of+Ckl+omNGfefnR5J+lE/Se
tTUl5m6QHyM4sTKaEf2CdbFI8k0ui+OEibGYbk9cci0QHZsPbCapZQufrwp/NX+8
UoghTVOJTs/n6s1jNYcLxvvrPKTSPM47nXV6x99HwhvtabbJtVwTj+R0Wmo4WgKG
/SvD+wtdNAffM3UDAdXFUyVTOECvSi3DR7iY0ql3/gYGd9mDkzpzoZ9Nfh2ADDn4
ZIGN//3rKhgWaauR0Oo3Xp+W2N+fUQWSHboTQnmAxgrkw2mz8pY+9uNGlt0LDY5u
tKCXNgilzs6wA5bU+C06W0/DiuOf6Oy+DORw5pzqwA7sbpp0bboj
-----END CERTIFICATE-----
