Certificate:
    Data:
        Version: 3 (0x2)
        Serial Number:
            62:07:85:ca:1e:bd:e2:a2:9d:62:c9:e6:12:4b:56:58
        Signature Algorithm: sha256WithRSAEncryption
        Issuer: CN=Easy-RSA CA
        Validity
            Not Before: Jan 25 17:26:06 2025 GMT
            Not After : Apr 30 17:26:06 2027 GMT
        Subject: CN=server
        Subject Public Key Info:
            Public Key Algorithm: rsaEncryption
                Public-Key: (2048 bit)
                Modulus:
                    00:bf:c2:03:26:71:a0:5c:40:72:95:b7:72:3f:b9:
                    1c:25:84:d1:2e:1f:ee:34:4a:e0:03:da:67:8b:a8:
                    c4:d6:70:b9:c9:11:8c:24:3c:63:40:5f:fb:4f:f8:
                    d4:bf:b2:92:42:e6:ae:4c:82:4a:42:4e:e0:d1:99:
                    a3:02:60:3a:9e:c7:61:34:56:43:a8:4e:62:0a:7d:
                    52:7c:24:12:03:7a:85:7b:f5:f0:8c:52:99:24:05:
                    ae:65:25:bf:48:94:b0:8e:b4:b1:5c:8d:23:fb:bf:
                    8b:8b:a3:04:d6:ba:31:5d:c9:87:e1:79:92:1f:3a:
                    cf:fd:7c:fd:2a:ed:19:a1:3c:0f:07:73:17:c4:0c:
                    a1:16:86:ff:22:f9:30:6d:5c:c4:91:6c:72:f1:e2:
                    f5:9a:51:e1:e3:74:45:af:67:c2:03:4b:7b:3c:98:
                    5d:c9:b0:77:42:8c:31:6b:68:90:df:f5:f3:15:98:
                    40:b0:e7:87:4b:1f:02:7c:7b:9e:d1:19:9e:41:f3:
                    2e:dd:07:86:78:dd:7d:3e:4e:53:41:43:23:26:d1:
                    a0:ca:ab:dd:13:e2:1d:dc:34:fb:13:09:35:20:cb:
                    7b:be:96:0e:79:d4:84:17:18:1e:62:58:e9:5c:df:
                    16:c7:fe:d2:99:1a:95:e3:ce:d2:67:a0:5b:3e:aa:
                    7a:19
                Exponent: 65537 (0x10001)
        X509v3 extensions:
            X509v3 Basic Constraints: 
                CA:FALSE
            X509v3 Subject Key Identifier: 
                23:17:32:53:E1:DE:BC:CD:64:BD:8B:D3:1C:86:F1:80:65:83:7E:D1
            X509v3 Authority Key Identifier: 
                keyid:AF:32:7C:45:B9:29:85:CB:28:08:D0:61:1D:B2:3D:C2:62:33:1C:CF
                DirName:/CN=Easy-RSA CA
                serial:7C:3E:57:B3:D3:EF:9B:2C:20:E5:93:55:F7:2C:AA:A8:15:A3:B5
            X509v3 Extended Key Usage: 
                TLS Web Server Authentication
            X509v3 Key Usage: 
                Digital Signature, Key Encipherment
    Signature Algorithm: sha256WithRSAEncryption
    Signature Value:
        22:05:5a:b5:35:03:ba:a2:f8:2d:2c:0b:65:51:e1:6e:72:7b:
        4d:21:cf:53:ca:8a:81:af:0a:06:f7:b2:95:db:7d:cd:cc:4d:
        37:f2:c2:38:d9:8a:c6:96:b8:10:bd:2a:12:45:cd:4b:0f:55:
        87:9f:e9:69:2d:cc:7b:b1:a3:36:ff:79:e3:fe:98:72:57:0a:
        b2:83:4c:9b:14:91:81:ef:3a:5f:be:7b:ca:a1:b7:e1:7e:c3:
        27:4b:2b:7d:14:73:3b:45:a2:71:78:1f:61:e6:eb:76:82:92:
        3a:99:45:9a:9f:62:25:58:d6:9c:65:c5:37:b2:99:95:c3:22:
        81:c3:a2:12:2e:c3:46:c1:ad:85:31:da:bf:b6:5b:07:b6:eb:
        1f:00:45:e0:75:9e:ef:7d:60:32:53:c6:b7:ad:5c:1a:e9:67:
        32:48:d5:00:b9:65:5d:1a:10:75:4a:46:e5:b6:68:46:d3:62:
        25:06:97:97:0f:ec:36:6a:9a:e8:56:30:bc:7b:13:83:5a:43:
        36:0a:3d:7f:76:1f:d2:34:49:10:f5:a8:11:1b:a8:82:a2:63:
        e7:e5:a6:89:6b:f2:15:a3:fa:36:c9:86:da:e4:1d:99:d3:b6:
        ed:72:0c:c1:74:63:ff:d4:ba:96:bf:8f:e7:4e:a2:15:4f:a4:
        49:3f:ae:ac
-----BEGIN CERTIFICATE-----
MIIDUzCCAjugAwIBAgIQYgeFyh694qKdYsnmEktWWDANBgkqhkiG9w0BAQsFADAW
MRQwEgYDVQQDDAtFYXN5LVJTQSBDQTAeFw0yNTAxMjUxNzI2MDZaFw0yNzA0MzAx
NzI2MDZaMBExDzANBgNVBAMMBnNlcnZlcjCCASIwDQYJKoZIhvcNAQEBBQADggEP
ADCCAQoCggEBAL/CAyZxoFxAcpW3cj+5HCWE0S4f7jRK4APaZ4uoxNZwuckRjCQ8
Y0Bf+0/41L+ykkLmrkyCSkJO4NGZowJgOp7HYTRWQ6hOYgp9UnwkEgN6hXv18IxS
mSQFrmUlv0iUsI60sVyNI/u/i4ujBNa6MV3Jh+F5kh86z/18/SrtGaE8DwdzF8QM
oRaG/yL5MG1cxJFscvHi9ZpR4eN0Ra9nwgNLezyYXcmwd0KMMWtokN/18xWYQLDn
h0sfAnx7ntEZnkHzLt0HhnjdfT5OU0FDIybRoMqr3RPiHdw0+xMJNSDLe76WDnnU
hBcYHmJY6VzfFsf+0pkalePO0megWz6qehkCAwEAAaOBoTCBnjAJBgNVHRMEAjAA
MB0GA1UdDgQWBBQjFzJT4d68zWS9i9MchvGAZYN+0TBQBgNVHSMESTBHgBSvMnxF
uSmFyygI0GEdsj3CYjMcz6EapBgwFjEUMBIGA1UEAwwLRWFzeS1SU0EgQ0GCE3w+
V7PT75ssIOWTVfcsqqgVo7UwEwYDVR0lBAwwCgYIKwYBBQUHAwEwCwYDVR0PBAQD
AgWgMA0GCSqGSIb3DQEBCwUAA4IBAQAiBVq1NQO6ovgtLAtlUeFucntNIc9TyoqB
rwoG97KV233NzE038sI42YrGlrgQvSoSRc1LD1WHn+lpLcx7saM2/3nj/phyVwqy
g0ybFJGB7zpfvnvKobfhfsMnSyt9FHM7RaJxeB9h5ut2gpI6mUWan2IlWNacZcU3
spmVwyKBw6ISLsNGwa2FMdq/tlsHtusfAEXgdZ7vfWAyU8a3rVwa6WcySNUAuWVd
GhB1SkbltmhG02IlBpeXD+w2aproVjC8exODWkM2Cj1/dh/SNEkQ9agRG6iComPn
5aaJa/IVo/o2yYba5B2Z07btcgzBdGP/1LqWv4/nTqIVT6RJP66s
-----END CERTIFICATE-----
